target datalayout = "e-m:e-p270:32:32-p271:32:32-p272:64:64-i64:64-i128:128-f80:128-n8:16:32:64-S128"
target triple = "x86_64-pc-linux-gnu"

%struct.rb_data_type_struct = type { ptr, %struct.anon, ptr, ptr, i64 }
%struct.anon = type { ptr, ptr, ptr, ptr, [1 x ptr] }

@eEC_GROUP = internal global i64 0, align 8
@eEC_POINT = internal global i64 0, align 8
@ossl_ec_group_type = internal constant %struct.rb_data_type_struct { ptr @.str.61, %struct.anon { ptr null, ptr @ossl_ec_group_free, ptr null, ptr null, [1 x ptr] zeroinitializer }, ptr null, ptr null, i64 33 }, align 8
@.str.59 = private unnamed_addr constant [28 x i8] c"EC_GROUP is not initialized\00", align 1
@ossl_ec_point_type = internal constant %struct.rb_data_type_struct { ptr @.str.87, %struct.anon { ptr null, ptr @ossl_ec_point_free, ptr null, ptr null, [1 x ptr] zeroinitializer }, ptr null, ptr null, i64 33 }, align 8
@.str.85 = private unnamed_addr constant [28 x i8] c"EC_POINT is not initialized\00", align 1
@.str.86 = private unnamed_addr constant [23 x i8] c"EC_GROUP_set_generator\00", align 1

; Function Attrs: nounwind sspstrong uwtable
define internal i64 @ossl_ec_group_set_generator(i64 noundef %0, i64 noundef %1, i64 noundef %2, i64 noundef %3) #0 {
  %5 = alloca i64, align 8
  %6 = alloca i64, align 8
  %7 = alloca i64, align 8
  %8 = alloca i64, align 8
  %9 = alloca ptr, align 8
  %10 = alloca ptr, align 8
  %11 = alloca ptr, align 8
  %12 = alloca ptr, align 8
  store i64 %0, ptr %5, align 8, !tbaa !6
  store i64 %1, ptr %6, align 8, !tbaa !6
  store i64 %2, ptr %7, align 8, !tbaa !6
  store i64 %3, ptr %8, align 8, !tbaa !6
  call void @llvm.lifetime.start.p0(i64 8, ptr %9) #19
  store ptr null, ptr %9, align 8, !tbaa !33
  call void @llvm.lifetime.start.p0(i64 8, ptr %10) #19
  call void @llvm.lifetime.start.p0(i64 8, ptr %11) #19
  call void @llvm.lifetime.start.p0(i64 8, ptr %12) #19
  br label %13

13:                                               ; preds = %4
  %14 = load i64, ptr %5, align 8, !tbaa !6
  %15 = call ptr @rb_check_typeddata(i64 noundef %14, ptr noundef @ossl_ec_group_type)
  store ptr %15, ptr %9, align 8, !tbaa !33
  %16 = load ptr, ptr %9, align 8, !tbaa !33
  %17 = icmp eq ptr %16, null
  br i1 %17, label %18, label %20

18:                                               ; preds = %13
  %19 = load i64, ptr @eEC_GROUP, align 8, !tbaa !6
  call void (i64, ptr, ...) @ossl_raise(i64 noundef %19, ptr noundef @.str.59) #20
  unreachable

20:                                               ; preds = %13
  br label %21

21:                                               ; preds = %20
  br label %22

22:                                               ; preds = %21
  br label %23

23:                                               ; preds = %22
  %24 = load i64, ptr %6, align 8, !tbaa !6
  %25 = call ptr @rb_check_typeddata(i64 noundef %24, ptr noundef @ossl_ec_point_type)
  store ptr %25, ptr %10, align 8, !tbaa !37
  %26 = load ptr, ptr %10, align 8, !tbaa !37
  %27 = icmp eq ptr %26, null
  br i1 %27, label %28, label %30

28:                                               ; preds = %23
  %29 = load i64, ptr @eEC_POINT, align 8, !tbaa !6
  call void (i64, ptr, ...) @ossl_raise(i64 noundef %29, ptr noundef @.str.85) #20
  unreachable

30:                                               ; preds = %23
  br label %31

31:                                               ; preds = %30
  br label %32

32:                                               ; preds = %31
  %33 = call ptr @ossl_bn_value_ptr(ptr noundef %7)
  store ptr %33, ptr %11, align 8, !tbaa !35
  %34 = call ptr @ossl_bn_value_ptr(ptr noundef %8)
  store ptr %34, ptr %12, align 8, !tbaa !35
  %35 = load ptr, ptr %9, align 8, !tbaa !33
  %36 = load ptr, ptr %10, align 8, !tbaa !37
  %37 = load ptr, ptr %11, align 8, !tbaa !35
  %38 = load ptr, ptr %12, align 8, !tbaa !35
  %39 = call i32 @EC_GROUP_set_generator(ptr noundef %35, ptr noundef %36, ptr noundef %37, ptr noundef %38)
  %40 = icmp ne i32 %39, 1
  br i1 %40, label %41, label %43

41:                                               ; preds = %32
  %42 = load i64, ptr @eEC_GROUP, align 8, !tbaa !6
  call void (i64, ptr, ...) @ossl_raise(i64 noundef %42, ptr noundef @.str.86) #20
  unreachable

43:                                               ; preds = %32
  %44 = load i64, ptr %5, align 8, !tbaa !6
  call void @llvm.lifetime.end.p0(i64 8, ptr %12) #19
  call void @llvm.lifetime.end.p0(i64 8, ptr %11) #19
  call void @llvm.lifetime.end.p0(i64 8, ptr %10) #19
  call void @llvm.lifetime.end.p0(i64 8, ptr %9) #19
  ret i64 %44
}