; Function Attrs: nounwind sspstrong uwtable
define internal noundef i64 @ossl_ec_group_set_generator(i64 noundef returned %0, i64 noundef %1, i64 noundef %2, i64 noundef %3) #0 {
  %5 = alloca i64, align 8
  %6 = alloca i64, align 8
  store i64 %2, ptr %5, align 8, !tbaa !6
  store i64 %3, ptr %6, align 8, !tbaa !6
  %7 = tail call ptr @rb_check_typeddata(i64 noundef %0, ptr noundef nonnull @ossl_ec_group_type) #7
  %8 = icmp eq ptr %7, null
  br i1 %8, label %9, label %11

9:                                                ; preds = %4
  %10 = load i64, ptr @eEC_GROUP, align 8, !tbaa !6
  tail call void (i64, ptr, ...) @ossl_raise(i64 noundef %10, ptr noundef nonnull @.str.59) #9
  unreachable

11:                                               ; preds = %4
  %12 = tail call ptr @rb_check_typeddata(i64 noundef %1, ptr noundef nonnull @ossl_ec_point_type) #7
  %13 = icmp eq ptr %12, null
  br i1 %13, label %14, label %16

14:                                               ; preds = %11
  %15 = load i64, ptr @eEC_POINT, align 8, !tbaa !6
  tail call void (i64, ptr, ...) @ossl_raise(i64 noundef %15, ptr noundef nonnull @.str.85) #9
  unreachable

16:                                               ; preds = %11
  %17 = call ptr @ossl_bn_value_ptr(ptr noundef nonnull %5) #7
  %18 = call ptr @ossl_bn_value_ptr(ptr noundef nonnull %6) #7
  %19 = call i32 @EC_GROUP_set_generator(ptr noundef nonnull %7, ptr noundef nonnull %12, ptr noundef %17, ptr noundef %18) #7
  %.not = icmp eq i32 %19, 1
  br i1 %.not, label %22, label %20

20:                                               ; preds = %16
  %21 = load i64, ptr @eEC_GROUP, align 8, !tbaa !6
  call void (i64, ptr, ...) @ossl_raise(i64 noundef %21, ptr noundef nonnull @.str.86) #9
  unreachable

22:                                               ; preds = %16
  ret i64 %0
}